target datalayout = "e-m:e-p270:32:32-p271:32:32-p272:64:64-i64:64-i128:128-f80:128-n8:16:32:64-S128"
target triple = "x86_64-pc-linux-gnu"

%"struct.Luau::NormalizedStringType" = type { i8, %"class.std::map" }
%"class.std::map" = type { %"class.std::_Rb_tree" }
%"class.std::_Rb_tree" = type { %"struct.std::_Rb_tree<std::__cxx11::basic_string<char>, std::pair<const std::__cxx11::basic_string<char>, const Luau::Type *>, std::_Select1st<std::pair<const std::__cxx11::basic_string<char>, const Luau::Type *>>, std::less<std::__cxx11::basic_string<char>>>::_Rb_tree_impl" }
%"struct.std::_Rb_tree<std::__cxx11::basic_string<char>, std::pair<const std::__cxx11::basic_string<char>, const Luau::Type *>, std::_Select1st<std::pair<const std::__cxx11::basic_string<char>, const Luau::Type *>>, std::less<std::__cxx11::basic_string<char>>>::_Rb_tree_impl" = type { [8 x i8], %"struct.std::_Rb_tree_header" }
%"struct.std::_Rb_tree_header" = type { %"struct.std::_Rb_tree_node_base", i64 }
%"struct.std::_Rb_tree_node_base" = type { i32, ptr, ptr, ptr }
%"class.Luau::TypeIds" = type { %"class.Luau::DenseHashMap", %"class.std::vector.1", i64 }
%"class.Luau::DenseHashMap" = type { %"class.Luau::detail::DenseHashTable" }
%"class.Luau::detail::DenseHashTable" = type <{ ptr, i64, i64, ptr, [8 x i8] }>
%"class.std::vector.1" = type { %"struct.std::_Vector_base.2" }
%"struct.std::_Vector_base.2" = type { %"struct.std::_Vector_base<const Luau::Type *, std::allocator<const Luau::Type *>>::_Vector_impl" }
%"struct.std::_Vector_base<const Luau::Type *, std::allocator<const Luau::Type *>>::_Vector_impl" = type { %"struct.std::_Vector_base<const Luau::Type *, std::allocator<const Luau::Type *>>::_Vector_impl_data" }
%"struct.std::_Vector_base<const Luau::Type *, std::allocator<const Luau::Type *>>::_Vector_impl_data" = type { ptr, ptr, ptr }
%"class.std::__cxx11::basic_string" = type { %"struct.std::__cxx11::basic_string<char>::_Alloc_hider", i64, %union.anon }
%"struct.std::__cxx11::basic_string<char>::_Alloc_hider" = type { ptr }
%union.anon = type { i64, [8 x i8] }
%"struct.Luau::NormalizedClassType" = type { %"class.std::unordered_map", %"class.std::vector.1" }
%"class.std::unordered_map" = type { %"class.std::_Hashtable" }
%"class.std::_Hashtable" = type { ptr, i64, %"struct.std::__detail::_Hash_node_base", i64, %"struct.std::__detail::_Prime_rehash_policy", ptr }
%"struct.std::__detail::_Hash_node_base" = type { ptr }
%"struct.std::__detail::_Prime_rehash_policy" = type { float, i64 }
%"struct.Luau::NormalizedFunctionType" = type { i8, %"class.Luau::TypeIds" }
%"struct.Luau::NormalizedType" = type <{ ptr, ptr, %"struct.Luau::NormalizedClassType", ptr, ptr, ptr, %"struct.Luau::NormalizedStringType", ptr, ptr, %"class.Luau::TypeIds", %"struct.Luau::NormalizedFunctionType", %"class.std::unordered_map.22", i8, [7 x i8] }>
%"class.std::unordered_map.22" = type { %"class.std::_Hashtable.23" }
%"class.std::_Hashtable.23" = type { ptr, i64, %"struct.std::__detail::_Hash_node_base", i64, %"struct.std::__detail::_Prime_rehash_policy", ptr }
%"struct.Luau::Type" = type { %"class.Luau::Variant.454", i8, [7 x i8], %"class.std::optional.143", ptr }
%"class.Luau::Variant.454" = type { i32, [4 x i8], [336 x i8] }
%"class.std::optional.143" = type { %"struct.std::_Optional_base.144" }
%"struct.std::_Optional_base.144" = type { %"struct.std::_Optional_payload.146" }
%"struct.std::_Optional_payload.146" = type { %"struct.std::_Optional_payload.base.150", [7 x i8] }
%"struct.std::_Optional_payload.base.150" = type { %"struct.std::_Optional_payload_base.base.149" }
%"struct.std::_Optional_payload_base.base.149" = type <{ %"union.std::_Optional_payload_base<std::__cxx11::basic_string<char>>::_Storage", i8 }>
%"union.std::_Optional_payload_base<std::__cxx11::basic_string<char>>::_Storage" = type { %"class.std::__cxx11::basic_string" }

; Function Attrs: mustprogress nounwind uwtable
define linkonce_odr dso_local noundef ptr @_ZNK4Luau7VariantIJNS_9Unifiable5BoundIPKNS_4TypeEEENS1_5ErrorIS5_EENS_8FreeTypeENS_11GenericTypeENS_13PrimitiveTypeENS_13SingletonTypeENS_11BlockedTypeENS_20PendingExpansionTypeENS_12FunctionTypeENS_9TableTypeENS_13MetatableTypeENS_9ClassTypeENS_7AnyTypeENS_9UnionTypeENS_16IntersectionTypeENS_8LazyTypeENS_11UnknownTypeENS_9NeverTypeENS_12NegationTypeENS_12NoRefineTypeENS_24TypeFunctionInstanceTypeEEE6get_ifISO_EEPKT_v(ptr noundef nonnull align 8 dereferenceable(344) %0) #2 comdat align 2 {
  %2 = alloca ptr, align 8
  %3 = alloca i32, align 4
  store ptr %0, ptr %2, align 8, !tbaa !1418
  %4 = load ptr, ptr %2, align 8
  call void @llvm.lifetime.start.p0(i64 4, ptr %3) #4
  store i32 17, ptr %3, align 4, !tbaa !4
  %5 = getelementptr inbounds nuw %"class.Luau::Variant.454", ptr %4, i32 0, i32 0
  %6 = load i32, ptr %5, align 8, !tbaa !1420
  %7 = icmp eq i32 17, %6
  br i1 %7, label %8, label %10

8:                                                ; preds = %1
  %9 = getelementptr inbounds nuw %"class.Luau::Variant.454", ptr %4, i32 0, i32 2
  br label %11

10:                                               ; preds = %1
  br label %11

11:                                               ; preds = %10, %8
  %12 = phi ptr [ %9, %8 ], [ null, %10 ]
  call void @llvm.lifetime.end.p0(i64 4, ptr %3) #4
  ret ptr %12
}

; Function Attrs: mustprogress uwtable
define linkonce_odr dso_local noundef ptr @_ZN4Luau6get_ifINS_9NeverTypeEJNS_9Unifiable5BoundIPKNS_4TypeEEENS2_5ErrorIS6_EENS_8FreeTypeENS_11GenericTypeENS_13PrimitiveTypeENS_13SingletonTypeENS_11BlockedTypeENS_20PendingExpansionTypeENS_12FunctionTypeENS_9TableTypeENS_13MetatableTypeENS_9ClassTypeENS_7AnyTypeENS_9UnionTypeENS_16IntersectionTypeENS_8LazyTypeENS_11UnknownTypeES1_NS_12NegationTypeENS_12NoRefineTypeENS_24TypeFunctionInstanceTypeEEEEPKT_PKNS_7VariantIJDpT0_EEE(ptr noundef %0) #6 comdat {
  %2 = alloca ptr, align 8
  store ptr %0, ptr %2, align 8, !tbaa !1418
  %3 = load ptr, ptr %2, align 8, !tbaa !1418
  %4 = icmp ne ptr %3, null
  br i1 %4, label %5, label %8

5:                                                ; preds = %1
  %6 = load ptr, ptr %2, align 8, !tbaa !1418
  %7 = call noundef ptr @_ZNK4Luau7VariantIJNS_9Unifiable5BoundIPKNS_4TypeEEENS1_5ErrorIS5_EENS_8FreeTypeENS_11GenericTypeENS_13PrimitiveTypeENS_13SingletonTypeENS_11BlockedTypeENS_20PendingExpansionTypeENS_12FunctionTypeENS_9TableTypeENS_13MetatableTypeENS_9ClassTypeENS_7AnyTypeENS_9UnionTypeENS_16IntersectionTypeENS_8LazyTypeENS_11UnknownTypeENS_9NeverTypeENS_12NegationTypeENS_12NoRefineTypeENS_24TypeFunctionInstanceTypeEEE6get_ifISO_EEPKT_v(ptr noundef nonnull align 8 dereferenceable(344) %6)
  br label %9

8:                                                ; preds = %1
  br label %9

9:                                                ; preds = %8, %5
  %10 = phi ptr [ %7, %5 ], [ null, %8 ]
  ret ptr %10
}

; Function Attrs: mustprogress uwtable
define linkonce_odr dso_local noundef ptr @_ZN4Luau3getINS_9NeverTypeEEEPKT_PKNS_4TypeE(ptr noundef %0) #6 comdat {
  %2 = alloca ptr, align 8
  store ptr %0, ptr %2, align 8, !tbaa !44
  %3 = load ptr, ptr %2, align 8, !tbaa !44
  %4 = getelementptr inbounds nuw %"struct.Luau::Type", ptr %3, i32 0, i32 0
  %5 = call noundef ptr @_ZN4Luau6get_ifINS_9NeverTypeEJNS_9Unifiable5BoundIPKNS_4TypeEEENS2_5ErrorIS6_EENS_8FreeTypeENS_11GenericTypeENS_13PrimitiveTypeENS_13SingletonTypeENS_11BlockedTypeENS_20PendingExpansionTypeENS_12FunctionTypeENS_9TableTypeENS_13MetatableTypeENS_9ClassTypeENS_7AnyTypeENS_9UnionTypeENS_16IntersectionTypeENS_8LazyTypeENS_11UnknownTypeES1_NS_12NegationTypeENS_12NoRefineTypeENS_24TypeFunctionInstanceTypeEEEEPKT_PKNS_7VariantIJDpT0_EEE(ptr noundef %4)
  ret ptr %5
}

; Function Attrs: mustprogress uwtable
define dso_local noundef zeroext i1 @_ZNK4Luau14NormalizedType10hasThreadsEv(ptr noundef nonnull align 8 dereferenceable(401) %0) #6 align 2 {
  %2 = alloca ptr, align 8
  store ptr %0, ptr %2, align 8, !tbaa !131
  %3 = load ptr, ptr %2, align 8
  %4 = getelementptr inbounds nuw %"struct.Luau::NormalizedType", ptr %3, i32 0, i32 7
  %5 = load ptr, ptr %4, align 8, !tbaa !159
  %6 = call noundef ptr @_ZN4Luau3getINS_9NeverTypeEEEPKT_PKNS_4TypeE(ptr noundef %5)
  %7 = icmp ne ptr %6, null
  %8 = xor i1 %7, true
  ret i1 %8
}